target datalayout = "e-m:e-p270:32:32-p271:32:32-p272:64:64-i64:64-i128:128-f80:128-n8:16:32:64-S128"
target triple = "x86_64-pc-linux-gnu"

%struct.mbedtls_pk_debug_item = type { i32, ptr, ptr }
%struct.mbedtls_rsa_context = type { i32, i64, %struct.mbedtls_mpi, %struct.mbedtls_mpi, %struct.mbedtls_mpi, %struct.mbedtls_mpi, %struct.mbedtls_mpi, %struct.mbedtls_mpi, %struct.mbedtls_mpi, %struct.mbedtls_mpi, %struct.mbedtls_mpi, %struct.mbedtls_mpi, %struct.mbedtls_mpi, %struct.mbedtls_mpi, %struct.mbedtls_mpi, i32, i32 }
%struct.mbedtls_mpi = type { i32, i64, ptr }

@.str.1 = private unnamed_addr constant [6 x i8] c"rsa.N\00", align 1
@.str.2 = private unnamed_addr constant [6 x i8] c"rsa.E\00", align 1

; Function Attrs: mustprogress nounwind uwtable
define internal void @_ZL9rsa_debugPKvP21mbedtls_pk_debug_item(ptr noundef %0, ptr noundef %1) #1 {
  %3 = alloca ptr, align 8
  %4 = alloca ptr, align 8
  store ptr %0, ptr %3, align 8, !tbaa !3
  store ptr %1, ptr %4, align 8, !tbaa !21
  %5 = load ptr, ptr %4, align 8, !tbaa !21
  %6 = getelementptr inbounds nuw %struct.mbedtls_pk_debug_item, ptr %5, i32 0, i32 0
  store i32 1, ptr %6, align 8, !tbaa !23
  %7 = load ptr, ptr %4, align 8, !tbaa !21
  %8 = getelementptr inbounds nuw %struct.mbedtls_pk_debug_item, ptr %7, i32 0, i32 1
  store ptr @.str.1, ptr %8, align 8, !tbaa !26
  %9 = load ptr, ptr %3, align 8, !tbaa !3
  %10 = getelementptr inbounds nuw %struct.mbedtls_rsa_context, ptr %9, i32 0, i32 2
  %11 = load ptr, ptr %4, align 8, !tbaa !21
  %12 = getelementptr inbounds nuw %struct.mbedtls_pk_debug_item, ptr %11, i32 0, i32 2
  store ptr %10, ptr %12, align 8, !tbaa !27
  %13 = load ptr, ptr %4, align 8, !tbaa !21
  %14 = getelementptr inbounds nuw %struct.mbedtls_pk_debug_item, ptr %13, i32 1
  store ptr %14, ptr %4, align 8, !tbaa !21
  %15 = load ptr, ptr %4, align 8, !tbaa !21
  %16 = getelementptr inbounds nuw %struct.mbedtls_pk_debug_item, ptr %15, i32 0, i32 0
  store i32 1, ptr %16, align 8, !tbaa !23
  %17 = load ptr, ptr %4, align 8, !tbaa !21
  %18 = getelementptr inbounds nuw %struct.mbedtls_pk_debug_item, ptr %17, i32 0, i32 1
  store ptr @.str.2, ptr %18, align 8, !tbaa !26
  %19 = load ptr, ptr %3, align 8, !tbaa !3
  %20 = getelementptr inbounds nuw %struct.mbedtls_rsa_context, ptr %19, i32 0, i32 3
  %21 = load ptr, ptr %4, align 8, !tbaa !21
  %22 = getelementptr inbounds nuw %struct.mbedtls_pk_debug_item, ptr %21, i32 0, i32 2
  store ptr %20, ptr %22, align 8, !tbaa !27
  ret void
}