; Function Attrs: mustprogress nofree norecurse nosync nounwind willreturn memory(argmem: write) uwtable
define internal void @_ZL9rsa_debugPKvP21mbedtls_pk_debug_item(ptr noundef %0, ptr noundef writeonly captures(none) initializes((0, 4), (8, 28), (32, 48)) %1) #2 {
  store i32 1, ptr %1, align 8, !tbaa !7
  %3 = getelementptr inbounds nuw i8, ptr %1, i64 8
  store ptr @.str.1, ptr %3, align 8, !tbaa !12
  %4 = getelementptr inbounds nuw i8, ptr %0, i64 16
  %5 = getelementptr inbounds nuw i8, ptr %1, i64 16
  store ptr %4, ptr %5, align 8, !tbaa !13
  %6 = getelementptr inbounds nuw i8, ptr %1, i64 24
  store i32 1, ptr %6, align 8, !tbaa !7
  %7 = getelementptr inbounds nuw i8, ptr %1, i64 32
  store ptr @.str.2, ptr %7, align 8, !tbaa !12
  %8 = getelementptr inbounds nuw i8, ptr %0, i64 40
  %9 = getelementptr inbounds nuw i8, ptr %1, i64 40
  store ptr %8, ptr %9, align 8, !tbaa !13
  ret void
}